; Function Attrs: nounwind uwtable
define ptr @l_System_Uri_pathToUri___lambda__2(ptr noundef %0, ptr noundef %1, ptr noundef readnone captures(none) %2) local_unnamed_addr #0 {
  br label %lean_string_utf8_at_end.exit.i

lean_string_utf8_at_end.exit.i:                   ; preds = %lean_dec.exit.i, %3
  %4 = phi i64 [ %11, %lean_dec.exit.i ], [ 1, %3 ]
  %.02754.i = phi ptr [ %10, %lean_dec.exit.i ], [ inttoptr (i64 1 to ptr), %3 ]
  %.02953.i = phi ptr [ %9, %lean_dec.exit.i ], [ %1, %3 ]
  %5 = lshr i64 %4, 1
  %6 = getelementptr i8, ptr %.02953.i, i64 8
  %.val.i.i = load i64, ptr %6, align 8, !tbaa !15
  %7 = add i64 %.val.i.i, -1
  %.not.i = icmp ult i64 %5, %7
  br i1 %.not.i, label %lean_dec.exit.i, label %l_String_mapAux___at_System_Uri_pathToUri___spec__1.exit

lean_dec.exit.i:                                  ; preds = %lean_string_utf8_at_end.exit.i
  %8 = tail call i32 @lean_string_utf8_get(ptr noundef nonnull %.02953.i, ptr noundef %.02754.i) #3
  %.not48.i = icmp eq i32 %8, 92
  %..i = select i1 %.not48.i, i32 47, i32 %8
  %9 = tail call ptr @lean_string_utf8_set(ptr noundef nonnull %.02953.i, ptr noundef %.02754.i, i32 noundef %..i) #3
  %10 = tail call ptr @lean_string_utf8_next(ptr noundef %9, ptr noundef %.02754.i) #3
  %11 = ptrtoint ptr %10 to i64
  %12 = and i64 %11, 1
  %.not.i40.i = icmp eq i64 %12, 0
  br i1 %.not.i40.i, label %._crit_edge.i, label %lean_string_utf8_at_end.exit.i

._crit_edge.i:                                    ; preds = %lean_dec.exit.i
  %13 = load i32, ptr %10, align 4, !tbaa !4
  %14 = icmp sgt i32 %13, 1
  br i1 %14, label %15, label %17, !prof !11

15:                                               ; preds = %._crit_edge.i
  %16 = add nsw i32 %13, -1
  store i32 %16, ptr %10, align 4, !tbaa !4
  br label %l_String_mapAux___at_System_Uri_pathToUri___spec__1.exit

17:                                               ; preds = %._crit_edge.i
  %.not.i38.i = icmp eq i32 %13, 0
  br i1 %.not.i38.i, label %l_String_mapAux___at_System_Uri_pathToUri___spec__1.exit, label %18

18:                                               ; preds = %17
  tail call void @lean_dec_ref_cold(ptr noundef nonnull %10) #3
  br label %l_String_mapAux___at_System_Uri_pathToUri___spec__1.exit

l_String_mapAux___at_System_Uri_pathToUri___spec__1.exit: ; preds = %lean_string_utf8_at_end.exit.i, %15, %17, %18
  %.02951.i = phi ptr [ %9, %18 ], [ %9, %17 ], [ %9, %15 ], [ %.02953.i, %lean_string_utf8_at_end.exit.i ]
  %19 = tail call ptr @lean_apply_2(ptr noundef %0, ptr noundef %.02951.i, ptr noundef nonnull inttoptr (i64 1 to ptr)) #3
  ret ptr %19
}